target datalayout = "e-m:e-p270:32:32-p271:32:32-p272:64:64-i64:64-i128:128-f80:128-n8:16:32:64-S128"
target triple = "x86_64-pc-linux-gnu"

%class.MethodLiveness = type { ptr, ptr, i32, i32, ptr, i32, ptr, ptr, %class.ArenaBitMap }
%class.ArenaBitMap = type { %class.GrowableBitMap, ptr }
%class.GrowableBitMap = type { %class.BitMap }
%class.BitMap = type { ptr, i64 }
%"class.MethodLiveness::BasicBlock" = type <{ ptr, i32, i32, %class.ArenaBitMap, %class.ArenaBitMap, %class.ArenaBitMap, %class.ArenaBitMap, %class.ArenaBitMap, i32, [4 x i8], ptr, ptr, ptr, i8, [7 x i8] }>

; Function Attrs: mustprogress nounwind uwtable
define linkonce_odr hidden noundef ptr @_ZNK14MethodLiveness10BasicBlock4nextEv(ptr noundef nonnull align 8 dereferenceable(169) %0) #1 comdat align 2 {
  %2 = alloca ptr, align 8
  store ptr %0, ptr %2, align 8
  %3 = load ptr, ptr %2, align 8
  %4 = getelementptr inbounds %"class.MethodLiveness::BasicBlock", ptr %3, i32 0, i32 12
  %5 = load ptr, ptr %4, align 8
  ret ptr %5
}

; Function Attrs: mustprogress nounwind uwtable
define linkonce_odr hidden void @_ZN14MethodLiveness10BasicBlock16set_on_work_listEb(ptr noundef nonnull align 8 dereferenceable(169) %0, i1 noundef zeroext %1) #1 comdat align 2 {
  %3 = alloca ptr, align 8
  %4 = alloca i8, align 1
  store ptr %0, ptr %3, align 8
  %5 = zext i1 %1 to i8
  store i8 %5, ptr %4, align 1
  %6 = load ptr, ptr %3, align 8
  %7 = load i8, ptr %4, align 1
  %8 = trunc i8 %7 to i1
  %9 = getelementptr inbounds %"class.MethodLiveness::BasicBlock", ptr %6, i32 0, i32 13
  %10 = zext i1 %8 to i8
  store i8 %10, ptr %9, align 8
  ret void
}

; Function Attrs: mustprogress nounwind uwtable
define hidden noundef ptr @_ZN14MethodLiveness13work_list_getEv(ptr noundef nonnull align 8 dereferenceable(80) %0) #1 align 2 {
  %2 = alloca ptr, align 8
  %3 = alloca ptr, align 8
  store ptr %0, ptr %2, align 8
  %4 = load ptr, ptr %2, align 8
  %5 = getelementptr inbounds %class.MethodLiveness, ptr %4, i32 0, i32 7
  %6 = load ptr, ptr %5, align 8
  store ptr %6, ptr %3, align 8
  %7 = load ptr, ptr %3, align 8
  %8 = icmp ne ptr %7, null
  br i1 %8, label %9, label %14

9:                                                ; preds = %1
  %10 = load ptr, ptr %3, align 8
  call void @_ZN14MethodLiveness10BasicBlock16set_on_work_listEb(ptr noundef nonnull align 8 dereferenceable(169) %10, i1 noundef zeroext false)
  %11 = load ptr, ptr %3, align 8
  %12 = call noundef ptr @_ZNK14MethodLiveness10BasicBlock4nextEv(ptr noundef nonnull align 8 dereferenceable(169) %11)
  %13 = getelementptr inbounds %class.MethodLiveness, ptr %4, i32 0, i32 7
  store ptr %12, ptr %13, align 8
  br label %14

14:                                               ; preds = %9, %1
  %15 = load ptr, ptr %3, align 8
  ret ptr %15
}