; Function Attrs: mustprogress nofree norecurse nosync nounwind willreturn memory(readwrite, inaccessiblemem: none) uwtable
define hidden noundef ptr @_ZN14MethodLiveness13work_list_getEv(ptr nocapture noundef nonnull align 8 dereferenceable(80) %0) local_unnamed_addr #3 align 2 {
  %2 = getelementptr inbounds i8, ptr %0, i64 48
  %3 = load ptr, ptr %2, align 8
  %.not = icmp eq ptr %3, null
  br i1 %.not, label %8, label %4

4:                                                ; preds = %1
  %5 = getelementptr inbounds i8, ptr %3, i64 168
  store i8 0, ptr %5, align 8
  %6 = getelementptr inbounds i8, ptr %3, i64 160
  %7 = load ptr, ptr %6, align 8
  store ptr %7, ptr %2, align 8
  br label %8

8:                                                ; preds = %4, %1
  ret ptr %3
}